target datalayout = "e-m:e-p270:32:32-p271:32:32-p272:64:64-i64:64-i128:128-f80:128-n8:16:32:64-S128"
target triple = "x86_64-pc-linux-gnu"

%struct.AVFormatContext = type { ptr, ptr, ptr, ptr, ptr, i32, i32, ptr, i32, ptr, i32, ptr, ptr, i64, i64, i64, i32, i32, i32, i64, i64, ptr, i32, i32, ptr, i32, i32, i32, i32, ptr, i64, i32, i32, %struct.AVIOInterruptCB, i32, i32, i32, i32, i64, i32, i32, i32, i32, i32, i32, i32, i32, i32, i32, i32, i32, i64, i32, i32, i32, i32, i32, ptr, ptr, ptr, ptr, i32, ptr, ptr, ptr, ptr, i32, ptr, ptr, i64, ptr, ptr, ptr, i64 }
%struct.AVIOInterruptCB = type { ptr, ptr }
%struct.AVStream = type { ptr, i32, i32, ptr, ptr, %struct.AVRational, i64, i64, i64, i32, i32, %struct.AVRational, ptr, %struct.AVRational, %struct.AVPacket, i32, %struct.AVRational, i32 }
%struct.AVPacket = type { ptr, i64, i64, ptr, i32, i32, i32, ptr, i32, i64, i64, ptr, ptr, %struct.AVRational }
%struct.AVRational = type { i32, i32 }
%struct.AVCodecParameters = type { i32, i32, i32, ptr, i32, ptr, i32, i32, i64, i32, i32, i32, i32, i32, i32, %struct.AVRational, %struct.AVRational, i32, i32, i32, i32, i32, i32, i32, %struct.AVChannelLayout, i32, i32, i32, i32, i32, i32 }
%struct.AVChannelLayout = type { i32, i32, %union.anon, ptr }
%union.anon = type { i64 }
%struct.AIFFInputContext = type { i64, i32 }

@.str.13 = private unnamed_addr constant [21 x i8] c"block_align not set\0A\00", align 1

; Function Attrs: alwaysinline nounwind uwtable
define internal i64 @avio_tell(ptr noundef %0) #4 {
  %2 = alloca ptr, align 8
  store ptr %0, ptr %2, align 8, !tbaa !33
  %3 = load ptr, ptr %2, align 8, !tbaa !33
  %4 = call i64 @avio_seek(ptr noundef %3, i64 noundef 0, i32 noundef 1)
  ret i64 %4
}

; Function Attrs: nounwind uwtable
define internal i32 @aiff_read_packet(ptr noundef %0, ptr noundef %1) #0 {
  %3 = alloca i32, align 4
  %4 = alloca ptr, align 8
  %5 = alloca ptr, align 8
  %6 = alloca ptr, align 8
  %7 = alloca ptr, align 8
  %8 = alloca i64, align 8
  %9 = alloca i32, align 4
  %10 = alloca i32, align 4
  %11 = alloca i32, align 4
  store ptr %0, ptr %4, align 8, !tbaa !14
  store ptr %1, ptr %5, align 8, !tbaa !66
  call void @llvm.lifetime.start.p0(i64 8, ptr %6) #8
  %12 = load ptr, ptr %4, align 8, !tbaa !14
  %13 = getelementptr inbounds nuw %struct.AVFormatContext, ptr %12, i32 0, i32 7
  %14 = load ptr, ptr %13, align 8, !tbaa !68
  %15 = getelementptr inbounds ptr, ptr %14, i64 0
  %16 = load ptr, ptr %15, align 8, !tbaa !37
  store ptr %16, ptr %6, align 8, !tbaa !37
  call void @llvm.lifetime.start.p0(i64 8, ptr %7) #8
  %17 = load ptr, ptr %4, align 8, !tbaa !14
  %18 = getelementptr inbounds nuw %struct.AVFormatContext, ptr %17, i32 0, i32 3
  %19 = load ptr, ptr %18, align 8, !tbaa !34
  store ptr %19, ptr %7, align 8, !tbaa !35
  call void @llvm.lifetime.start.p0(i64 8, ptr %8) #8
  call void @llvm.lifetime.start.p0(i64 4, ptr %9) #8
  call void @llvm.lifetime.start.p0(i64 4, ptr %10) #8
  %20 = load ptr, ptr %7, align 8, !tbaa !35
  %21 = getelementptr inbounds nuw %struct.AIFFInputContext, ptr %20, i32 0, i32 0
  %22 = load i64, ptr %21, align 8, !tbaa !52
  %23 = load ptr, ptr %4, align 8, !tbaa !14
  %24 = getelementptr inbounds nuw %struct.AVFormatContext, ptr %23, i32 0, i32 4
  %25 = load ptr, ptr %24, align 8, !tbaa !19
  %26 = call i64 @avio_tell(ptr noundef %25)
  %27 = sub nsw i64 %22, %26
  store i64 %27, ptr %8, align 8, !tbaa !16
  %28 = load i64, ptr %8, align 8, !tbaa !16
  %29 = icmp sle i64 %28, 0
  br i1 %29, label %30, label %31

30:                                               ; preds = %2
  store i32 -541478725, ptr %3, align 4
  store i32 1, ptr %11, align 4
  br label %133

31:                                               ; preds = %2
  %32 = load ptr, ptr %6, align 8, !tbaa !37
  %33 = getelementptr inbounds nuw %struct.AVStream, ptr %32, i32 0, i32 3
  %34 = load ptr, ptr %33, align 8, !tbaa !39
  %35 = getelementptr inbounds nuw %struct.AVCodecParameters, ptr %34, i32 0, i32 26
  %36 = load i32, ptr %35, align 4, !tbaa !46
  %37 = icmp ne i32 %36, 0
  br i1 %37, label %40, label %38

38:                                               ; preds = %31
  %39 = load ptr, ptr %4, align 8, !tbaa !14
  call void (ptr, i32, ptr, ...) @av_log(ptr noundef %39, i32 noundef 16, ptr noundef @.str.13)
  store i32 -1094995529, ptr %3, align 4
  store i32 1, ptr %11, align 4
  br label %133

40:                                               ; preds = %31
  %41 = load ptr, ptr %6, align 8, !tbaa !37
  %42 = getelementptr inbounds nuw %struct.AVStream, ptr %41, i32 0, i32 3
  %43 = load ptr, ptr %42, align 8, !tbaa !39
  %44 = getelementptr inbounds nuw %struct.AVCodecParameters, ptr %43, i32 0, i32 1
  %45 = load i32, ptr %44, align 4, !tbaa !56
  switch i32 %45, label %52 [
    i32 69632, label %46
    i32 86034, label %46
    i32 86035, label %46
    i32 86040, label %46
  ]

46:                                               ; preds = %40, %40, %40, %40
  %47 = load ptr, ptr %6, align 8, !tbaa !37
  %48 = getelementptr inbounds nuw %struct.AVStream, ptr %47, i32 0, i32 3
  %49 = load ptr, ptr %48, align 8, !tbaa !39
  %50 = getelementptr inbounds nuw %struct.AVCodecParameters, ptr %49, i32 0, i32 26
  %51 = load i32, ptr %50, align 4, !tbaa !46
  store i32 %51, ptr %10, align 4, !tbaa !18
  br label %79

52:                                               ; preds = %40
  %53 = load ptr, ptr %6, align 8, !tbaa !37
  %54 = getelementptr inbounds nuw %struct.AVStream, ptr %53, i32 0, i32 3
  %55 = load ptr, ptr %54, align 8, !tbaa !39
  %56 = getelementptr inbounds nuw %struct.AVCodecParameters, ptr %55, i32 0, i32 26
  %57 = load i32, ptr %56, align 4, !tbaa !46
  %58 = icmp ne i32 %57, 0
  br i1 %58, label %59, label %72

59:                                               ; preds = %52
  %60 = load ptr, ptr %6, align 8, !tbaa !37
  %61 = getelementptr inbounds nuw %struct.AVStream, ptr %60, i32 0, i32 3
  %62 = load ptr, ptr %61, align 8, !tbaa !39
  %63 = getelementptr inbounds nuw %struct.AVCodecParameters, ptr %62, i32 0, i32 26
  %64 = load i32, ptr %63, align 4, !tbaa !46
  %65 = sdiv i32 4096, %64
  %66 = load ptr, ptr %6, align 8, !tbaa !37
  %67 = getelementptr inbounds nuw %struct.AVStream, ptr %66, i32 0, i32 3
  %68 = load ptr, ptr %67, align 8, !tbaa !39
  %69 = getelementptr inbounds nuw %struct.AVCodecParameters, ptr %68, i32 0, i32 26
  %70 = load i32, ptr %69, align 4, !tbaa !46
  %71 = mul nsw i32 %65, %70
  br label %73

72:                                               ; preds = %52
  br label %73

73:                                               ; preds = %72, %59
  %74 = phi i32 [ %71, %59 ], [ 4096, %72 ]
  store i32 %74, ptr %10, align 4, !tbaa !18
  %75 = load i32, ptr %10, align 4, !tbaa !18
  %76 = icmp ne i32 %75, 0
  br i1 %76, label %78, label %77

77:                                               ; preds = %73
  store i32 -1094995529, ptr %3, align 4
  store i32 1, ptr %11, align 4
  br label %133

78:                                               ; preds = %73
  br label %79

79:                                               ; preds = %78, %46
  %80 = load i64, ptr %8, align 8, !tbaa !16
  %81 = load i32, ptr %10, align 4, !tbaa !18
  %82 = sext i32 %81 to i64
  %83 = icmp sgt i64 %80, %82
  br i1 %83, label %84, label %87

84:                                               ; preds = %79
  %85 = load i32, ptr %10, align 4, !tbaa !18
  %86 = sext i32 %85 to i64
  br label %89

87:                                               ; preds = %79
  %88 = load i64, ptr %8, align 8, !tbaa !16
  br label %89

89:                                               ; preds = %87, %84
  %90 = phi i64 [ %86, %84 ], [ %88, %87 ]
  %91 = trunc i64 %90 to i32
  store i32 %91, ptr %10, align 4, !tbaa !18
  %92 = load ptr, ptr %4, align 8, !tbaa !14
  %93 = getelementptr inbounds nuw %struct.AVFormatContext, ptr %92, i32 0, i32 4
  %94 = load ptr, ptr %93, align 8, !tbaa !19
  %95 = load ptr, ptr %5, align 8, !tbaa !66
  %96 = load i32, ptr %10, align 4, !tbaa !18
  %97 = call i32 @av_get_packet(ptr noundef %94, ptr noundef %95, i32 noundef %96)
  store i32 %97, ptr %9, align 4, !tbaa !18
  %98 = load i32, ptr %9, align 4, !tbaa !18
  %99 = icmp slt i32 %98, 0
  br i1 %99, label %100, label %102

100:                                              ; preds = %89
  %101 = load i32, ptr %9, align 4, !tbaa !18
  store i32 %101, ptr %3, align 4
  store i32 1, ptr %11, align 4
  br label %133

102:                                              ; preds = %89
  %103 = load i32, ptr %10, align 4, !tbaa !18
  %104 = load ptr, ptr %6, align 8, !tbaa !37
  %105 = getelementptr inbounds nuw %struct.AVStream, ptr %104, i32 0, i32 3
  %106 = load ptr, ptr %105, align 8, !tbaa !39
  %107 = getelementptr inbounds nuw %struct.AVCodecParameters, ptr %106, i32 0, i32 26
  %108 = load i32, ptr %107, align 4, !tbaa !46
  %109 = icmp sge i32 %103, %108
  br i1 %109, label %110, label %115

110:                                              ; preds = %102
  %111 = load ptr, ptr %5, align 8, !tbaa !66
  %112 = getelementptr inbounds nuw %struct.AVPacket, ptr %111, i32 0, i32 6
  %113 = load i32, ptr %112, align 8, !tbaa !69
  %114 = and i32 %113, -3
  store i32 %114, ptr %112, align 8, !tbaa !69
  br label %115

115:                                              ; preds = %110, %102
  %116 = load ptr, ptr %5, align 8, !tbaa !66
  %117 = getelementptr inbounds nuw %struct.AVPacket, ptr %116, i32 0, i32 5
  store i32 0, ptr %117, align 4, !tbaa !70
  %118 = load i32, ptr %9, align 4, !tbaa !18
  %119 = load ptr, ptr %6, align 8, !tbaa !37
  %120 = getelementptr inbounds nuw %struct.AVStream, ptr %119, i32 0, i32 3
  %121 = load ptr, ptr %120, align 8, !tbaa !39
  %122 = getelementptr inbounds nuw %struct.AVCodecParameters, ptr %121, i32 0, i32 26
  %123 = load i32, ptr %122, align 4, !tbaa !46
  %124 = sdiv i32 %118, %123
  %125 = sext i32 %124 to i64
  %126 = load ptr, ptr %7, align 8, !tbaa !35
  %127 = getelementptr inbounds nuw %struct.AIFFInputContext, ptr %126, i32 0, i32 1
  %128 = load i32, ptr %127, align 8, !tbaa !58
  %129 = sext i32 %128 to i64
  %130 = mul nsw i64 %125, %129
  %131 = load ptr, ptr %5, align 8, !tbaa !66
  %132 = getelementptr inbounds nuw %struct.AVPacket, ptr %131, i32 0, i32 9
  store i64 %130, ptr %132, align 8, !tbaa !71
  store i32 0, ptr %3, align 4
  store i32 1, ptr %11, align 4
  br label %133

133:                                              ; preds = %115, %100, %77, %38, %30
  call void @llvm.lifetime.end.p0(i64 4, ptr %10) #8
  call void @llvm.lifetime.end.p0(i64 4, ptr %9) #8
  call void @llvm.lifetime.end.p0(i64 8, ptr %8) #8
  call void @llvm.lifetime.end.p0(i64 8, ptr %7) #8
  call void @llvm.lifetime.end.p0(i64 8, ptr %6) #8
  %134 = load i32, ptr %3, align 4
  ret i32 %134
}