; Function Attrs: nounwind uwtable
define internal range(i32 -2147483648, 1) i32 @aiff_read_packet(ptr noundef %0, ptr noundef %1) #1 {
  %3 = getelementptr inbounds nuw i8, ptr %0, i64 48
  %4 = load ptr, ptr %3, align 8, !tbaa !28
  %5 = load ptr, ptr %4, align 8, !tbaa !29
  %6 = getelementptr inbounds nuw i8, ptr %0, i64 24
  %7 = load ptr, ptr %6, align 8, !tbaa !27
  %8 = load i64, ptr %7, align 8, !tbaa !52
  %9 = getelementptr inbounds nuw i8, ptr %0, i64 32
  %10 = load ptr, ptr %9, align 8, !tbaa !12
  %11 = tail call i64 @avio_seek(ptr noundef %10, i64 noundef 0, i32 noundef 1) #7
  %12 = sub nsw i64 %8, %11
  %13 = icmp slt i64 %12, 1
  br i1 %13, label %50, label %14

14:                                               ; preds = %2
  %15 = getelementptr inbounds nuw i8, ptr %5, i64 16
  %16 = load ptr, ptr %15, align 8, !tbaa !31
  %17 = getelementptr inbounds nuw i8, ptr %16, i64 156
  %18 = load i32, ptr %17, align 4, !tbaa !48
  %.not = icmp eq i32 %18, 0
  br i1 %.not, label %19, label %20

19:                                               ; preds = %14
  tail call void (ptr, i32, ptr, ...) @av_log(ptr noundef nonnull %0, i32 noundef 16, ptr noundef nonnull @.str.13) #7
  br label %50

20:                                               ; preds = %14
  %21 = getelementptr inbounds nuw i8, ptr %16, i64 4
  %22 = load i32, ptr %21, align 4, !tbaa !45
  switch i32 %22, label %23 [
    i32 69632, label %26
    i32 86034, label %26
    i32 86035, label %26
    i32 86040, label %26
  ]

23:                                               ; preds = %20
  %24 = srem i32 4096, %18
  %25 = sub nuw nsw i32 4096, %24
  %.not35 = icmp eq i32 %24, 4096
  br i1 %.not35, label %50, label %26

26:                                               ; preds = %20, %20, %20, %20, %23
  %.0 = phi i32 [ %25, %23 ], [ %18, %20 ], [ %18, %20 ], [ %18, %20 ], [ %18, %20 ]
  %27 = sext i32 %.0 to i64
  %28 = tail call i64 @llvm.smin.i64(i64 %12, i64 %27)
  %29 = trunc nsw i64 %28 to i32
  %30 = load ptr, ptr %9, align 8, !tbaa !12
  %31 = tail call i32 @av_get_packet(ptr noundef %30, ptr noundef %1, i32 noundef %29) #7
  %32 = icmp slt i32 %31, 0
  br i1 %32, label %50, label %33

33:                                               ; preds = %26
  %34 = load ptr, ptr %15, align 8, !tbaa !31
  %35 = getelementptr inbounds nuw i8, ptr %34, i64 156
  %36 = load i32, ptr %35, align 4, !tbaa !48
  %.not36 = icmp sgt i32 %36, %29
  br i1 %.not36, label %41, label %37

37:                                               ; preds = %33
  %38 = getelementptr inbounds nuw i8, ptr %1, i64 40
  %39 = load i32, ptr %38, align 8, !tbaa !62
  %40 = and i32 %39, -3
  store i32 %40, ptr %38, align 8, !tbaa !62
  br label %41

41:                                               ; preds = %37, %33
  %42 = getelementptr inbounds nuw i8, ptr %1, i64 36
  store i32 0, ptr %42, align 4, !tbaa !63
  %43 = sdiv i32 %31, %36
  %44 = sext i32 %43 to i64
  %45 = getelementptr inbounds nuw i8, ptr %7, i64 8
  %46 = load i32, ptr %45, align 8, !tbaa !46
  %47 = sext i32 %46 to i64
  %48 = mul nsw i64 %47, %44
  %49 = getelementptr inbounds nuw i8, ptr %1, i64 64
  store i64 %48, ptr %49, align 8, !tbaa !64
  br label %50

50:                                               ; preds = %26, %23, %2, %41, %19
  %.030 = phi i32 [ 0, %41 ], [ -1094995529, %19 ], [ -541478725, %2 ], [ -1094995529, %23 ], [ %31, %26 ]
  ret i32 %.030
}